target datalayout = "e-m:e-p270:32:32-p271:32:32-p272:64:64-i64:64-i128:128-f80:128-n8:16:32:64-S128"
target triple = "x86_64-pc-linux-gnu"

%struct.AVFilterContext = type { ptr, ptr, ptr, ptr, ptr, i32, ptr, ptr, i32, ptr, ptr, i32, i32, ptr, ptr, ptr, ptr, i32, ptr, i32, i32 }
%struct.MovieContext = type { ptr, i64, double, ptr, ptr, ptr, i32, i32, i64, i64, i32, ptr, ptr, i32, i32, ptr, ptr, ptr }
%struct.AVFormatContext = type { ptr, ptr, ptr, ptr, ptr, i32, i32, ptr, i32, ptr, i32, ptr, ptr, i64, i64, i64, i32, i32, i32, i64, i64, ptr, i32, i32, ptr, i32, i32, i32, i32, ptr, i64, i32, i32, %struct.AVIOInterruptCB, i32, i32, i32, i32, i64, i32, i32, i32, i32, i32, i32, i32, i32, i32, i32, i32, i32, i64, i32, i32, i32, i32, i32, ptr, ptr, ptr, ptr, i32, ptr, ptr, ptr, ptr, i32, ptr, ptr, i64, ptr, ptr, ptr, i64 }
%struct.AVIOInterruptCB = type { ptr, ptr }
%struct.MovieStream = type { ptr, ptr, ptr, i64, i64, ptr, i32 }

@.str.50 = private unnamed_addr constant [5 x i8] c"seek\00", align 1
@.str.51 = private unnamed_addr constant [14 x i8] c"%i|%li|%i %1s\00", align 1
@.str.52 = private unnamed_addr constant [13 x i8] c"get_duration\00", align 1
@.str.53 = private unnamed_addr constant [4 x i8] c"%1s\00", align 1
@.str.54 = private unnamed_addr constant [4 x i8] c"%ld\00", align 1

; Function Attrs: nounwind uwtable
define internal i32 @process_command(ptr noundef %0, ptr noundef %1, ptr noundef %2, ptr noundef %3, i32 noundef %4, i32 noundef %5) #1 {
  %7 = alloca i32, align 4
  %8 = alloca ptr, align 8
  %9 = alloca ptr, align 8
  %10 = alloca ptr, align 8
  %11 = alloca ptr, align 8
  %12 = alloca i32, align 4
  %13 = alloca i32, align 4
  %14 = alloca ptr, align 8
  %15 = alloca i32, align 4
  %16 = alloca i32, align 4
  %17 = alloca i32, align 4
  %18 = alloca i32, align 4
  %19 = alloca i64, align 8
  %20 = alloca [2 x i8], align 1
  %21 = alloca i32, align 4
  %22 = alloca i32, align 4
  %23 = alloca [2 x i8], align 1
  store ptr %0, ptr %8, align 8, !tbaa !4
  store ptr %1, ptr %9, align 8, !tbaa !39
  store ptr %2, ptr %10, align 8, !tbaa !39
  store ptr %3, ptr %11, align 8, !tbaa !39
  store i32 %4, ptr %12, align 4, !tbaa !26
  store i32 %5, ptr %13, align 4, !tbaa !26
  call void @llvm.lifetime.start.p0(i64 8, ptr %14) #11
  %24 = load ptr, ptr %8, align 8, !tbaa !4
  %25 = getelementptr inbounds nuw %struct.AVFilterContext, ptr %24, i32 0, i32 9
  %26 = load ptr, ptr %25, align 8, !tbaa !9
  store ptr %26, ptr %14, align 8, !tbaa !22
  call void @llvm.lifetime.start.p0(i64 4, ptr %15) #11
  store i32 -38, ptr %15, align 4, !tbaa !26
  %27 = load ptr, ptr %9, align 8, !tbaa !39
  %28 = call i32 @strcmp(ptr noundef %27, ptr noundef @.str.50) #12
  %29 = icmp ne i32 %28, 0
  br i1 %29, label %70, label %30

30:                                               ; preds = %6
  call void @llvm.lifetime.start.p0(i64 4, ptr %16) #11
  call void @llvm.lifetime.start.p0(i64 4, ptr %17) #11
  call void @llvm.lifetime.start.p0(i64 4, ptr %18) #11
  call void @llvm.lifetime.start.p0(i64 8, ptr %19) #11
  call void @llvm.lifetime.start.p0(i64 2, ptr %20) #11
  %31 = load ptr, ptr %10, align 8, !tbaa !39
  %32 = getelementptr inbounds [2 x i8], ptr %20, i64 0, i64 0
  %33 = call i32 (ptr, ptr, ...) @__isoc99_sscanf(ptr noundef %31, ptr noundef @.str.51, ptr noundef %16, ptr noundef %19, ptr noundef %17, ptr noundef %32) #11
  %34 = icmp ne i32 %33, 3
  br i1 %34, label %35, label %36

35:                                               ; preds = %30
  store i32 -22, ptr %7, align 4
  store i32 1, ptr %21, align 4
  br label %69

36:                                               ; preds = %30
  %37 = load ptr, ptr %14, align 8, !tbaa !22
  %38 = getelementptr inbounds nuw %struct.MovieContext, ptr %37, i32 0, i32 12
  %39 = load ptr, ptr %38, align 8, !tbaa !49
  %40 = load i32, ptr %16, align 4, !tbaa !26
  %41 = load i64, ptr %19, align 8, !tbaa !50
  %42 = load i32, ptr %17, align 4, !tbaa !26
  %43 = call i32 @av_seek_frame(ptr noundef %39, i32 noundef %40, i64 noundef %41, i32 noundef %42)
  store i32 %43, ptr %15, align 4, !tbaa !26
  %44 = load i32, ptr %15, align 4, !tbaa !26
  %45 = icmp slt i32 %44, 0
  br i1 %45, label %46, label %48

46:                                               ; preds = %36
  %47 = load i32, ptr %15, align 4, !tbaa !26
  store i32 %47, ptr %7, align 4
  store i32 1, ptr %21, align 4
  br label %69

48:                                               ; preds = %36
  store i32 0, ptr %18, align 4, !tbaa !26
  br label %49

49:                                               ; preds = %64, %48
  %50 = load i32, ptr %18, align 4, !tbaa !26
  %51 = load ptr, ptr %8, align 8, !tbaa !4
  %52 = getelementptr inbounds nuw %struct.AVFilterContext, ptr %51, i32 0, i32 8
  %53 = load i32, ptr %52, align 8, !tbaa !101
  %54 = icmp ult i32 %50, %53
  br i1 %54, label %55, label %67

55:                                               ; preds = %49
  %56 = load ptr, ptr %14, align 8, !tbaa !22
  %57 = getelementptr inbounds nuw %struct.MovieContext, ptr %56, i32 0, i32 15
  %58 = load ptr, ptr %57, align 8, !tbaa !73
  %59 = load i32, ptr %18, align 4, !tbaa !26
  %60 = sext i32 %59 to i64
  %61 = getelementptr inbounds %struct.MovieStream, ptr %58, i64 %60
  %62 = getelementptr inbounds nuw %struct.MovieStream, ptr %61, i32 0, i32 2
  %63 = load ptr, ptr %62, align 8, !tbaa !116
  call void @avcodec_flush_buffers(ptr noundef %63)
  br label %64

64:                                               ; preds = %55
  %65 = load i32, ptr %18, align 4, !tbaa !26
  %66 = add nsw i32 %65, 1
  store i32 %66, ptr %18, align 4, !tbaa !26
  br label %49, !llvm.loop !117

67:                                               ; preds = %49
  %68 = load i32, ptr %15, align 4, !tbaa !26
  store i32 %68, ptr %7, align 4
  store i32 1, ptr %21, align 4
  br label %69

69:                                               ; preds = %67, %46, %35
  call void @llvm.lifetime.end.p0(i64 2, ptr %20) #11
  call void @llvm.lifetime.end.p0(i64 8, ptr %19) #11
  call void @llvm.lifetime.end.p0(i64 4, ptr %18) #11
  call void @llvm.lifetime.end.p0(i64 4, ptr %17) #11
  call void @llvm.lifetime.end.p0(i64 4, ptr %16) #11
  br label %112

70:                                               ; preds = %6
  %71 = load ptr, ptr %9, align 8, !tbaa !39
  %72 = call i32 @strcmp(ptr noundef %71, ptr noundef @.str.52) #12
  %73 = icmp ne i32 %72, 0
  br i1 %73, label %109, label %74

74:                                               ; preds = %70
  call void @llvm.lifetime.start.p0(i64 4, ptr %22) #11
  call void @llvm.lifetime.start.p0(i64 2, ptr %23) #11
  %75 = load ptr, ptr %11, align 8, !tbaa !39
  %76 = icmp ne ptr %75, null
  br i1 %76, label %77, label %80

77:                                               ; preds = %74
  %78 = load i32, ptr %12, align 4, !tbaa !26
  %79 = icmp sle i32 %78, 0
  br i1 %79, label %80, label %81

80:                                               ; preds = %77, %74
  store i32 -22, ptr %7, align 4
  store i32 1, ptr %21, align 4
  br label %108

81:                                               ; preds = %77
  %82 = load ptr, ptr %10, align 8, !tbaa !39
  %83 = icmp ne ptr %82, null
  br i1 %83, label %84, label %90

84:                                               ; preds = %81
  %85 = load ptr, ptr %10, align 8, !tbaa !39
  %86 = getelementptr inbounds [2 x i8], ptr %23, i64 0, i64 0
  %87 = call i32 (ptr, ptr, ...) @__isoc99_sscanf(ptr noundef %85, ptr noundef @.str.53, ptr noundef %86) #11
  %88 = icmp eq i32 %87, 1
  br i1 %88, label %89, label %90

89:                                               ; preds = %84
  store i32 -22, ptr %7, align 4
  store i32 1, ptr %21, align 4
  br label %108

90:                                               ; preds = %84, %81
  %91 = load ptr, ptr %11, align 8, !tbaa !39
  %92 = load i32, ptr %12, align 4, !tbaa !26
  %93 = sext i32 %92 to i64
  %94 = load ptr, ptr %14, align 8, !tbaa !22
  %95 = getelementptr inbounds nuw %struct.MovieContext, ptr %94, i32 0, i32 12
  %96 = load ptr, ptr %95, align 8, !tbaa !49
  %97 = getelementptr inbounds nuw %struct.AVFormatContext, ptr %96, i32 0, i32 14
  %98 = load i64, ptr %97, align 8, !tbaa !118
  %99 = call i32 (ptr, i64, ptr, ...) @snprintf(ptr noundef %91, i64 noundef %93, ptr noundef @.str.54, i64 noundef %98) #11
  store i32 %99, ptr %22, align 4, !tbaa !26
  %100 = load i32, ptr %22, align 4, !tbaa !26
  %101 = icmp slt i32 %100, 0
  br i1 %101, label %106, label %102

102:                                              ; preds = %90
  %103 = load i32, ptr %22, align 4, !tbaa !26
  %104 = load i32, ptr %12, align 4, !tbaa !26
  %105 = icmp sge i32 %103, %104
  br i1 %105, label %106, label %107

106:                                              ; preds = %102, %90
  store i32 -22, ptr %7, align 4
  store i32 1, ptr %21, align 4
  br label %108

107:                                              ; preds = %102
  store i32 0, ptr %7, align 4
  store i32 1, ptr %21, align 4
  br label %108

108:                                              ; preds = %107, %106, %89, %80
  call void @llvm.lifetime.end.p0(i64 2, ptr %23) #11
  call void @llvm.lifetime.end.p0(i64 4, ptr %22) #11
  br label %112

109:                                              ; preds = %70
  br label %110

110:                                              ; preds = %109
  %111 = load i32, ptr %15, align 4, !tbaa !26
  store i32 %111, ptr %7, align 4
  store i32 1, ptr %21, align 4
  br label %112

112:                                              ; preds = %110, %108, %69
  call void @llvm.lifetime.end.p0(i64 4, ptr %15) #11
  call void @llvm.lifetime.end.p0(i64 8, ptr %14) #11
  %113 = load i32, ptr %7, align 4
  ret i32 %113
}