; Function Attrs: nounwind uwtable
define internal i32 @process_command(ptr noundef readonly captures(none) %0, ptr noundef readonly captures(none) %1, ptr noundef readonly captures(address_is_null) %2, ptr noundef writeonly captures(address_is_null) %3, i32 noundef %4, i32 %5) #1 {
  %7 = alloca i32, align 4
  %8 = alloca i32, align 4
  %9 = alloca i64, align 8
  %10 = alloca [2 x i8], align 1
  %11 = alloca [2 x i8], align 1
  %12 = getelementptr inbounds nuw i8, ptr %0, i64 72
  %13 = load ptr, ptr %12, align 8, !tbaa !4
  %14 = tail call i32 @strcmp(ptr noundef nonnull dereferenceable(1) %1, ptr noundef nonnull dereferenceable(5) @.str.50) #14
  %.not = icmp eq i32 %14, 0
  br i1 %.not, label %15, label %35

15:                                               ; preds = %6
  call void @llvm.lifetime.start.p0(i64 4, ptr nonnull %7) #13
  call void @llvm.lifetime.start.p0(i64 4, ptr nonnull %8) #13
  call void @llvm.lifetime.start.p0(i64 8, ptr nonnull %9) #13
  call void @llvm.lifetime.start.p0(i64 2, ptr nonnull %10) #13
  %16 = call i32 (ptr, ptr, ...) @__isoc99_sscanf(ptr noundef %2, ptr noundef nonnull @.str.51, ptr noundef nonnull %7, ptr noundef nonnull %9, ptr noundef nonnull %8, ptr noundef nonnull %10) #13
  %.not32 = icmp eq i32 %16, 3
  br i1 %.not32, label %17, label %.loopexit

17:                                               ; preds = %15
  %18 = getelementptr inbounds nuw i8, ptr %13, i64 88
  %19 = load ptr, ptr %18, align 8, !tbaa !42
  %20 = load i32, ptr %7, align 4, !tbaa !68
  %21 = load i64, ptr %9, align 8, !tbaa !105
  %22 = load i32, ptr %8, align 4, !tbaa !68
  %23 = call i32 @av_seek_frame(ptr noundef %19, i32 noundef %20, i64 noundef %21, i32 noundef %22) #13
  %24 = icmp slt i32 %23, 0
  br i1 %24, label %.loopexit, label %.preheader

.preheader:                                       ; preds = %17
  %25 = getelementptr inbounds nuw i8, ptr %0, i64 64
  %26 = load i32, ptr %25, align 8, !tbaa !94
  %.not38 = icmp eq i32 %26, 0
  br i1 %.not38, label %.loopexit, label %.lr.ph

.lr.ph:                                           ; preds = %.preheader
  %27 = getelementptr inbounds nuw i8, ptr %13, i64 104
  br label %28

28:                                               ; preds = %.lr.ph, %28
  %indvars.iv = phi i64 [ 0, %.lr.ph ], [ %indvars.iv.next, %28 ]
  %29 = load ptr, ptr %27, align 8, !tbaa !66
  %30 = getelementptr inbounds nuw %struct.MovieStream, ptr %29, i64 %indvars.iv, i32 2
  %31 = load ptr, ptr %30, align 8, !tbaa !106
  call void @avcodec_flush_buffers(ptr noundef %31) #13
  %indvars.iv.next = add nuw nsw i64 %indvars.iv, 1
  %32 = load i32, ptr %25, align 8, !tbaa !94
  %33 = zext i32 %32 to i64
  %34 = icmp samesign ult i64 %indvars.iv.next, %33
  br i1 %34, label %28, label %.loopexit, !llvm.loop !107

.loopexit:                                        ; preds = %28, %.preheader, %17, %15
  %.0 = phi i32 [ -22, %15 ], [ %23, %17 ], [ %23, %.preheader ], [ %23, %28 ]
  call void @llvm.lifetime.end.p0(i64 2, ptr nonnull %10) #13
  call void @llvm.lifetime.end.p0(i64 8, ptr nonnull %9) #13
  call void @llvm.lifetime.end.p0(i64 4, ptr nonnull %8) #13
  call void @llvm.lifetime.end.p0(i64 4, ptr nonnull %7) #13
  br label %52

35:                                               ; preds = %6
  %36 = tail call i32 @strcmp(ptr noundef nonnull dereferenceable(1) %1, ptr noundef nonnull dereferenceable(13) @.str.52) #14
  %.not33 = icmp eq i32 %36, 0
  br i1 %.not33, label %37, label %52

37:                                               ; preds = %35
  call void @llvm.lifetime.start.p0(i64 2, ptr nonnull %11) #13
  %38 = icmp eq ptr %3, null
  %39 = icmp slt i32 %4, 1
  %or.cond = or i1 %38, %39
  br i1 %or.cond, label %51, label %40

40:                                               ; preds = %37
  %.not34 = icmp eq ptr %2, null
  br i1 %.not34, label %44, label %41

41:                                               ; preds = %40
  %42 = call i32 (ptr, ptr, ...) @__isoc99_sscanf(ptr noundef nonnull %2, ptr noundef nonnull @.str.53, ptr noundef nonnull %11) #13
  %43 = icmp eq i32 %42, 1
  br i1 %43, label %51, label %44

44:                                               ; preds = %41, %40
  %45 = zext nneg i32 %4 to i64
  %46 = getelementptr inbounds nuw i8, ptr %13, i64 88
  %47 = load ptr, ptr %46, align 8, !tbaa !42
  %48 = getelementptr inbounds nuw i8, ptr %47, i64 104
  %49 = load i64, ptr %48, align 8, !tbaa !108
  %50 = call i32 (ptr, i64, ptr, ...) @snprintf(ptr noundef nonnull %3, i64 noundef %45, ptr noundef nonnull @.str.54, i64 noundef %49) #13
  %or.cond36 = icmp ult i32 %50, %4
  %spec.select = select i1 %or.cond36, i32 0, i32 -22
  br label %51

51:                                               ; preds = %44, %41, %37
  %.2 = phi i32 [ -22, %37 ], [ -22, %41 ], [ %spec.select, %44 ]
  call void @llvm.lifetime.end.p0(i64 2, ptr nonnull %11) #13
  br label %52

52:                                               ; preds = %35, %51, %.loopexit
  %.1 = phi i32 [ %.2, %51 ], [ %.0, %.loopexit ], [ -38, %35 ]
  ret i32 %.1
}